; Function Attrs: mustprogress nofree norecurse nosync nounwind willreturn memory(none) uwtable
define dso_local range(i32 0, 2) i32 @_PyUnicode_IsDecimalDigit(i32 noundef %0) local_unnamed_addr #0 {
  %2 = icmp ugt i32 %0, 1114111
  br i1 %2, label %gettyperecord.exit.i, label %3

3:                                                ; preds = %1
  %4 = lshr i32 %0, 6
  %5 = zext nneg i32 %4 to i64
  %6 = getelementptr [17408 x i16], ptr @index1, i64 0, i64 %5
  %7 = load i16, ptr %6, align 2, !tbaa !4
  %8 = zext i16 %7 to i32
  %9 = shl nuw nsw i32 %8, 6
  %10 = and i32 %0, 63
  %11 = or disjoint i32 %9, %10
  %12 = zext nneg i32 %11 to i64
  %13 = getelementptr [29312 x i16], ptr @index2, i64 0, i64 %12
  %14 = load i16, ptr %13, align 2, !tbaa !4
  %15 = add i16 %14, -6
  %16 = icmp ult i16 %15, 10
  %17 = zext i1 %16 to i32
  br label %gettyperecord.exit.i

gettyperecord.exit.i:                             ; preds = %3, %1
  %.0.i.i = phi i32 [ %17, %3 ], [ 0, %1 ]
  ret i32 %.0.i.i
}